target datalayout = "e-m:e-p270:32:32-p271:32:32-p272:64:64-i64:64-i128:128-f80:128-n8:16:32:64-S128"
target triple = "x86_64-pc-linux-gnu"

@H5P_CLS_DATASET_XFER_ID_g = external global i64, align 8
@H5_libinit_g = external global i8, align 1
@H5_libterm_g = external global i8, align 1
@.str.1 = private unnamed_addr constant [101 x i8] c"generated/home/dtcxzyw/WorkSpace/Projects/compilers/llvm-opt-benchmark/bench/hdf5/hdf5/src/H5Pdxpl.c\00", align 1
@H5E_FUNC_g = external global i64, align 8
@H5E_CANTINIT_g = external global i64, align 8
@.str.2 = private unnamed_addr constant [30 x i8] c"library initialization failed\00", align 1
@H5E_CANTSET_g = external global i64, align 8
@.str.3 = private unnamed_addr constant [22 x i8] c"can't set API context\00", align 1
@H5E_ID_g = external global i64, align 8
@H5E_BADID_g = external global i64, align 8
@.str.5 = private unnamed_addr constant [25 x i8] c"can't find object for ID\00", align 1
@H5E_PLIST_g = external global i64, align 8
@H5E_CANTGET_g = external global i64, align 8
@.str.22 = private unnamed_addr constant [14 x i8] c"bkgr_buf_type\00", align 1
@__func__.H5Pget_preserve = private unnamed_addr constant [16 x i8] c"H5Pget_preserve\00", align 1
@.str.24 = private unnamed_addr constant [20 x i8] c"unable to get value\00", align 1

; Function Attrs: nounwind uwtable
define i32 @H5Pget_preserve(i64 noundef %0) #0 {
  %2 = alloca i64, align 8
  %3 = alloca i32, align 4
  %4 = alloca ptr, align 8
  %5 = alloca i32, align 4
  %6 = alloca i8, align 1
  %7 = alloca i8, align 1
  store i64 %0, ptr %2, align 8
  store i8 0, ptr %6, align 1
  store i8 0, ptr %7, align 1
  %8 = load i8, ptr @H5_libinit_g, align 1
  %9 = trunc i8 %8 to i1
  br i1 %9, label %14, label %10

10:                                               ; preds = %1
  %11 = load i8, ptr @H5_libterm_g, align 1
  %12 = trunc i8 %11 to i1
  %13 = xor i1 %12, true
  br label %14

14:                                               ; preds = %10, %1
  %15 = phi i1 [ false, %1 ], [ %13, %10 ]
  %16 = xor i1 %15, true
  %17 = xor i1 %16, true
  %18 = zext i1 %17 to i32
  %19 = sext i32 %18 to i64
  %20 = icmp ne i64 %19, 0
  br i1 %20, label %21, label %45

21:                                               ; preds = %14
  %22 = call i32 @H5_init_library()
  %23 = icmp slt i32 %22, 0
  %24 = xor i1 %23, true
  %25 = xor i1 %24, true
  %26 = zext i1 %25 to i32
  %27 = sext i32 %26 to i64
  %28 = icmp ne i64 %27, 0
  br i1 %28, label %29, label %44

29:                                               ; preds = %21
  br label %30

30:                                               ; preds = %29
  br label %31

31:                                               ; preds = %30
  br label %32

32:                                               ; preds = %31
  %33 = load i64, ptr @H5E_FUNC_g, align 8
  %34 = load i64, ptr @H5E_CANTINIT_g, align 8
  %35 = call i32 (ptr, ptr, i32, i64, i64, ptr, ...) @H5E_printf_stack(ptr noundef @.str.1, ptr noundef @__func__.H5Pget_preserve, i32 noundef 1204, i64 noundef %33, i64 noundef %34, ptr noundef @.str.2)
  br label %36

36:                                               ; preds = %32
  store i8 1, ptr %7, align 1
  %37 = load i8, ptr %7, align 1
  %38 = trunc i8 %37 to i1
  %39 = zext i1 %38 to i8
  store i8 %39, ptr %7, align 1
  br label %40

40:                                               ; preds = %36
  br label %41

41:                                               ; preds = %40
  store i32 -1, ptr %5, align 4
  br label %113

42:                                               ; No predecessors!
  br label %43

43:                                               ; preds = %42
  br label %44

44:                                               ; preds = %43, %21
  br label %45

45:                                               ; preds = %44, %14
  %46 = call i32 @H5CX_push()
  %47 = icmp slt i32 %46, 0
  %48 = xor i1 %47, true
  %49 = xor i1 %48, true
  %50 = zext i1 %49 to i32
  %51 = sext i32 %50 to i64
  %52 = icmp ne i64 %51, 0
  br i1 %52, label %53, label %68

53:                                               ; preds = %45
  br label %54

54:                                               ; preds = %53
  br label %55

55:                                               ; preds = %54
  br label %56

56:                                               ; preds = %55
  %57 = load i64, ptr @H5E_FUNC_g, align 8
  %58 = load i64, ptr @H5E_CANTSET_g, align 8
  %59 = call i32 (ptr, ptr, i32, i64, i64, ptr, ...) @H5E_printf_stack(ptr noundef @.str.1, ptr noundef @__func__.H5Pget_preserve, i32 noundef 1204, i64 noundef %57, i64 noundef %58, ptr noundef @.str.3)
  br label %60

60:                                               ; preds = %56
  store i8 1, ptr %7, align 1
  %61 = load i8, ptr %7, align 1
  %62 = trunc i8 %61 to i1
  %63 = zext i1 %62 to i8
  store i8 %63, ptr %7, align 1
  br label %64

64:                                               ; preds = %60
  br label %65

65:                                               ; preds = %64
  store i32 -1, ptr %5, align 4
  br label %113

66:                                               ; No predecessors!
  br label %67

67:                                               ; preds = %66
  br label %69

68:                                               ; preds = %45
  store i8 1, ptr %6, align 1
  br label %69

69:                                               ; preds = %68, %67
  %70 = call i32 @H5E_clear_stack()
  %71 = load i64, ptr %2, align 8
  %72 = load i64, ptr @H5P_CLS_DATASET_XFER_ID_g, align 8
  %73 = call ptr @H5P_object_verify(i64 noundef %71, i64 noundef %72)
  store ptr %73, ptr %4, align 8
  %74 = icmp eq ptr null, %73
  br i1 %74, label %75, label %90

75:                                               ; preds = %69
  br label %76

76:                                               ; preds = %75
  br label %77

77:                                               ; preds = %76
  br label %78

78:                                               ; preds = %77
  %79 = load i64, ptr @H5E_ID_g, align 8
  %80 = load i64, ptr @H5E_BADID_g, align 8
  %81 = call i32 (ptr, ptr, i32, i64, i64, ptr, ...) @H5E_printf_stack(ptr noundef @.str.1, ptr noundef @__func__.H5Pget_preserve, i32 noundef 1208, i64 noundef %79, i64 noundef %80, ptr noundef @.str.5)
  br label %82

82:                                               ; preds = %78
  store i8 1, ptr %7, align 1
  %83 = load i8, ptr %7, align 1
  %84 = trunc i8 %83 to i1
  %85 = zext i1 %84 to i8
  store i8 %85, ptr %7, align 1
  br label %86

86:                                               ; preds = %82
  br label %87

87:                                               ; preds = %86
  store i32 -1, ptr %5, align 4
  br label %113

88:                                               ; No predecessors!
  br label %89

89:                                               ; preds = %88
  br label %90

90:                                               ; preds = %89, %69
  %91 = load ptr, ptr %4, align 8
  %92 = call i32 @H5P_get(ptr noundef %91, ptr noundef @.str.22, ptr noundef %3)
  %93 = icmp slt i32 %92, 0
  br i1 %93, label %94, label %109

94:                                               ; preds = %90
  br label %95

95:                                               ; preds = %94
  br label %96

96:                                               ; preds = %95
  br label %97

97:                                               ; preds = %96
  %98 = load i64, ptr @H5E_PLIST_g, align 8
  %99 = load i64, ptr @H5E_CANTGET_g, align 8
  %100 = call i32 (ptr, ptr, i32, i64, i64, ptr, ...) @H5E_printf_stack(ptr noundef @.str.1, ptr noundef @__func__.H5Pget_preserve, i32 noundef 1212, i64 noundef %98, i64 noundef %99, ptr noundef @.str.24)
  br label %101

101:                                              ; preds = %97
  store i8 1, ptr %7, align 1
  %102 = load i8, ptr %7, align 1
  %103 = trunc i8 %102 to i1
  %104 = zext i1 %103 to i8
  store i8 %104, ptr %7, align 1
  br label %105

105:                                              ; preds = %101
  br label %106

106:                                              ; preds = %105
  store i32 -1, ptr %5, align 4
  br label %113

107:                                              ; No predecessors!
  br label %108

108:                                              ; preds = %107
  br label %109

109:                                              ; preds = %108, %90
  %110 = load i32, ptr %3, align 4
  %111 = icmp ne i32 %110, 0
  %112 = select i1 %111, i32 1, i32 0
  store i32 %112, ptr %5, align 4
  br label %113

113:                                              ; preds = %109, %106, %87, %65, %41
  %114 = load i8, ptr %6, align 1
  %115 = trunc i8 %114 to i1
  %116 = xor i1 %115, true
  %117 = xor i1 %116, true
  %118 = zext i1 %117 to i32
  %119 = sext i32 %118 to i64
  %120 = icmp ne i64 %119, 0
  br i1 %120, label %121, label %123

121:                                              ; preds = %113
  %122 = call i32 @H5CX_pop(i1 noundef zeroext true)
  store i8 0, ptr %6, align 1
  br label %123

123:                                              ; preds = %121, %113
  %124 = load i8, ptr %7, align 1
  %125 = trunc i8 %124 to i1
  %126 = xor i1 %125, true
  %127 = xor i1 %126, true
  %128 = zext i1 %127 to i32
  %129 = sext i32 %128 to i64
  %130 = icmp ne i64 %129, 0
  br i1 %130, label %131, label %133

131:                                              ; preds = %123
  %132 = call i32 @H5E_dump_api_stack()
  br label %133

133:                                              ; preds = %131, %123
  %134 = load i32, ptr %5, align 4
  ret i32 %134
}